target datalayout = "e-m:e-p270:32:32-p271:32:32-p272:64:64-i64:64-i128:128-f80:128-n8:16:32:64-S128"
target triple = "x86_64-pc-linux-gnu"

%struct.DdManager = type { %struct.DdNode, ptr, ptr, ptr, ptr, ptr, ptr, ptr, i32, i32, double, double, double, i32, i32, i32, i32, i32, i32, ptr, ptr, %struct.DdSubtable, i32, i32, i32, i32, i32, i32, i32, double, i32, i32, i32, ptr, i64, double, i32, ptr, ptr, ptr, ptr, ptr, ptr, ptr, i32, ptr, ptr, ptr, ptr, ptr, ptr, i32, i32, i32, double, i32, i32, i32, i32, double, double, i32, i32, i32, i32, i32, i32, i32, i32, i32, ptr, ptr, i32, i32, i32, i32, i32, i32, ptr, ptr, ptr, ptr, ptr, ptr, ptr, ptr, i32, i64, i64, i64, i32, i64, i64, double, double, double, double, double, double, i32, ptr, ptr, i64 }
%struct.DdNode = type { i32, i32, ptr, %union.anon, i64 }
%union.anon = type { %struct.DdChildren }
%struct.DdChildren = type { ptr, ptr }
%struct.DdSubtable = type { ptr, i32, i32, i32, i32, i32, i32, i32, i32, i32, i32, i32 }

@.str = private unnamed_addr constant [7 x i8] c"Group:\00", align 1
@.str.1 = private unnamed_addr constant [5 x i8] c"  %d\00", align 1
@.str.2 = private unnamed_addr constant [2 x i8] c"\0A\00", align 1
@.str.3 = private unnamed_addr constant [22 x i8] c"Total Symmetric = %d\0A\00", align 1
@.str.4 = private unnamed_addr constant [19 x i8] c"Total Groups = %d\0A\00", align 1

; Function Attrs: nounwind uwtable
define void @Cudd_zddSymmProfile(ptr noundef %0, i32 noundef %1, i32 noundef %2) #0 {
  %4 = alloca ptr, align 8
  %5 = alloca i32, align 4
  %6 = alloca i32, align 4
  %7 = alloca i32, align 4
  %8 = alloca i32, align 4
  %9 = alloca i32, align 4
  %10 = alloca i32, align 4
  %11 = alloca i32, align 4
  store ptr %0, ptr %4, align 8, !tbaa !3
  store i32 %1, ptr %5, align 4, !tbaa !8
  store i32 %2, ptr %6, align 4, !tbaa !8
  call void @llvm.lifetime.start.p0(i64 4, ptr %7) #5
  call void @llvm.lifetime.start.p0(i64 4, ptr %8) #5
  call void @llvm.lifetime.start.p0(i64 4, ptr %9) #5
  call void @llvm.lifetime.start.p0(i64 4, ptr %10) #5
  store i32 0, ptr %10, align 4, !tbaa !8
  call void @llvm.lifetime.start.p0(i64 4, ptr %11) #5
  store i32 0, ptr %11, align 4, !tbaa !8
  %12 = load i32, ptr %5, align 4, !tbaa !8
  store i32 %12, ptr %7, align 4, !tbaa !8
  br label %13

13:                                               ; preds = %70, %3
  %14 = load i32, ptr %7, align 4, !tbaa !8
  %15 = load i32, ptr %6, align 4, !tbaa !8
  %16 = icmp slt i32 %14, %15
  br i1 %16, label %17, label %73

17:                                               ; preds = %13
  %18 = load ptr, ptr %4, align 8, !tbaa !3
  %19 = getelementptr inbounds nuw %struct.DdManager, ptr %18, i32 0, i32 20
  %20 = load ptr, ptr %19, align 8, !tbaa !10
  %21 = load i32, ptr %7, align 4, !tbaa !8
  %22 = sext i32 %21 to i64
  %23 = getelementptr inbounds %struct.DdSubtable, ptr %20, i64 %22
  %24 = getelementptr inbounds nuw %struct.DdSubtable, ptr %23, i32 0, i32 6
  %25 = load i32, ptr %24, align 4, !tbaa !27
  %26 = load i32, ptr %7, align 4, !tbaa !8
  %27 = icmp ne i32 %25, %26
  br i1 %27, label %28, label %69

28:                                               ; preds = %17
  %29 = load i32, ptr %7, align 4, !tbaa !8
  store i32 %29, ptr %8, align 4, !tbaa !8
  %30 = load ptr, ptr %4, align 8, !tbaa !3
  %31 = getelementptr inbounds nuw %struct.DdManager, ptr %30, i32 0, i32 84
  %32 = load ptr, ptr %31, align 8, !tbaa !28
  %33 = call i32 (ptr, ptr, ...) @fprintf(ptr noundef %32, ptr noundef @.str) #5
  br label %34

34:                                               ; preds = %57, %28
  %35 = load ptr, ptr %4, align 8, !tbaa !3
  %36 = getelementptr inbounds nuw %struct.DdManager, ptr %35, i32 0, i32 84
  %37 = load ptr, ptr %36, align 8, !tbaa !28
  %38 = load ptr, ptr %4, align 8, !tbaa !3
  %39 = getelementptr inbounds nuw %struct.DdManager, ptr %38, i32 0, i32 40
  %40 = load ptr, ptr %39, align 8, !tbaa !29
  %41 = load i32, ptr %8, align 4, !tbaa !8
  %42 = sext i32 %41 to i64
  %43 = getelementptr inbounds i32, ptr %40, i64 %42
  %44 = load i32, ptr %43, align 4, !tbaa !8
  %45 = call i32 (ptr, ptr, ...) @fprintf(ptr noundef %37, ptr noundef @.str.1, i32 noundef %44) #5
  %46 = load i32, ptr %10, align 4, !tbaa !8
  %47 = add nsw i32 %46, 1
  store i32 %47, ptr %10, align 4, !tbaa !8
  %48 = load i32, ptr %8, align 4, !tbaa !8
  store i32 %48, ptr %9, align 4, !tbaa !8
  %49 = load ptr, ptr %4, align 8, !tbaa !3
  %50 = getelementptr inbounds nuw %struct.DdManager, ptr %49, i32 0, i32 20
  %51 = load ptr, ptr %50, align 8, !tbaa !10
  %52 = load i32, ptr %8, align 4, !tbaa !8
  %53 = sext i32 %52 to i64
  %54 = getelementptr inbounds %struct.DdSubtable, ptr %51, i64 %53
  %55 = getelementptr inbounds nuw %struct.DdSubtable, ptr %54, i32 0, i32 6
  %56 = load i32, ptr %55, align 4, !tbaa !27
  store i32 %56, ptr %8, align 4, !tbaa !8
  br label %57

57:                                               ; preds = %34
  %58 = load i32, ptr %8, align 4, !tbaa !8
  %59 = load i32, ptr %7, align 4, !tbaa !8
  %60 = icmp ne i32 %58, %59
  br i1 %60, label %34, label %61, !llvm.loop !30

61:                                               ; preds = %57
  %62 = load i32, ptr %11, align 4, !tbaa !8
  %63 = add nsw i32 %62, 1
  store i32 %63, ptr %11, align 4, !tbaa !8
  %64 = load i32, ptr %9, align 4, !tbaa !8
  store i32 %64, ptr %7, align 4, !tbaa !8
  %65 = load ptr, ptr %4, align 8, !tbaa !3
  %66 = getelementptr inbounds nuw %struct.DdManager, ptr %65, i32 0, i32 84
  %67 = load ptr, ptr %66, align 8, !tbaa !28
  %68 = call i32 (ptr, ptr, ...) @fprintf(ptr noundef %67, ptr noundef @.str.2) #5
  br label %69

69:                                               ; preds = %61, %17
  br label %70

70:                                               ; preds = %69
  %71 = load i32, ptr %7, align 4, !tbaa !8
  %72 = add nsw i32 %71, 1
  store i32 %72, ptr %7, align 4, !tbaa !8
  br label %13, !llvm.loop !32

73:                                               ; preds = %13
  %74 = load ptr, ptr %4, align 8, !tbaa !3
  %75 = getelementptr inbounds nuw %struct.DdManager, ptr %74, i32 0, i32 84
  %76 = load ptr, ptr %75, align 8, !tbaa !28
  %77 = load i32, ptr %10, align 4, !tbaa !8
  %78 = call i32 (ptr, ptr, ...) @fprintf(ptr noundef %76, ptr noundef @.str.3, i32 noundef %77) #5
  %79 = load ptr, ptr %4, align 8, !tbaa !3
  %80 = getelementptr inbounds nuw %struct.DdManager, ptr %79, i32 0, i32 84
  %81 = load ptr, ptr %80, align 8, !tbaa !28
  %82 = load i32, ptr %11, align 4, !tbaa !8
  %83 = call i32 (ptr, ptr, ...) @fprintf(ptr noundef %81, ptr noundef @.str.4, i32 noundef %82) #5
  call void @llvm.lifetime.end.p0(i64 4, ptr %11) #5
  call void @llvm.lifetime.end.p0(i64 4, ptr %10) #5
  call void @llvm.lifetime.end.p0(i64 4, ptr %9) #5
  call void @llvm.lifetime.end.p0(i64 4, ptr %8) #5
  call void @llvm.lifetime.end.p0(i64 4, ptr %7) #5
  ret void
}