; Function Attrs: nofree nounwind uwtable
define void @Cudd_zddSymmProfile(ptr noundef readonly captures(none) %0, i32 noundef %1, i32 noundef %2) local_unnamed_addr #0 {
  %4 = icmp slt i32 %1, %2
  br i1 %4, label %.lr.ph, label %._crit_edge

.lr.ph:                                           ; preds = %3
  %5 = getelementptr inbounds nuw i8, ptr %0, i64 160
  %6 = getelementptr inbounds nuw i8, ptr %0, i64 608
  %7 = getelementptr inbounds nuw i8, ptr %0, i64 336
  br label %8

8:                                                ; preds = %.lr.ph, %30
  %.032 = phi i32 [ 0, %.lr.ph ], [ %.1, %30 ]
  %.02431 = phi i32 [ 0, %.lr.ph ], [ %.2, %30 ]
  %.02630 = phi i32 [ %1, %.lr.ph ], [ %31, %30 ]
  %9 = load ptr, ptr %5, align 8, !tbaa !3
  %10 = sext i32 %.02630 to i64
  %11 = getelementptr inbounds %struct.DdSubtable, ptr %9, i64 %10, i32 6
  %12 = load i32, ptr %11, align 4, !tbaa !24
  %.not = icmp eq i32 %12, %.02630
  br i1 %.not, label %30, label %13

13:                                               ; preds = %8
  %14 = load ptr, ptr %6, align 8, !tbaa !25
  %15 = tail call i64 @fwrite(ptr nonnull @.str, i64 6, i64 1, ptr %14)
  br label %16

16:                                               ; preds = %16, %13
  %.028 = phi i32 [ %.02630, %13 ], [ %26, %16 ]
  %.125 = phi i32 [ %.02431, %13 ], [ %23, %16 ]
  %17 = load ptr, ptr %6, align 8, !tbaa !25
  %18 = load ptr, ptr %7, align 8, !tbaa !26
  %19 = sext i32 %.028 to i64
  %20 = getelementptr inbounds i32, ptr %18, i64 %19
  %21 = load i32, ptr %20, align 4, !tbaa !27
  %22 = tail call i32 (ptr, ptr, ...) @fprintf(ptr noundef %17, ptr noundef nonnull @.str.1, i32 noundef %21) #11
  %23 = add nsw i32 %.125, 1
  %24 = load ptr, ptr %5, align 8, !tbaa !3
  %25 = getelementptr inbounds %struct.DdSubtable, ptr %24, i64 %19, i32 6
  %26 = load i32, ptr %25, align 4, !tbaa !24
  %.not29 = icmp eq i32 %26, %.02630
  br i1 %.not29, label %27, label %16, !llvm.loop !28

27:                                               ; preds = %16
  %28 = add nsw i32 %.032, 1
  %29 = load ptr, ptr %6, align 8, !tbaa !25
  %fputc = tail call i32 @fputc(i32 10, ptr %29)
  br label %30

30:                                               ; preds = %8, %27
  %.127 = phi i32 [ %.028, %27 ], [ %.02630, %8 ]
  %.2 = phi i32 [ %23, %27 ], [ %.02431, %8 ]
  %.1 = phi i32 [ %28, %27 ], [ %.032, %8 ]
  %31 = add nsw i32 %.127, 1
  %32 = icmp slt i32 %31, %2
  br i1 %32, label %8, label %._crit_edge, !llvm.loop !30

._crit_edge:                                      ; preds = %30, %3
  %.024.lcssa = phi i32 [ 0, %3 ], [ %.2, %30 ]
  %.0.lcssa = phi i32 [ 0, %3 ], [ %.1, %30 ]
  %33 = getelementptr inbounds nuw i8, ptr %0, i64 608
  %34 = load ptr, ptr %33, align 8, !tbaa !25
  %35 = tail call i32 (ptr, ptr, ...) @fprintf(ptr noundef %34, ptr noundef nonnull @.str.3, i32 noundef %.024.lcssa) #11
  %36 = load ptr, ptr %33, align 8, !tbaa !25
  %37 = tail call i32 (ptr, ptr, ...) @fprintf(ptr noundef %36, ptr noundef nonnull @.str.4, i32 noundef %.0.lcssa) #11
  ret void
}